target datalayout = "e-m:e-p270:32:32-p271:32:32-p272:64:64-i64:64-i128:128-f80:128-n8:16:32:64-S128"
target triple = "x86_64-pc-linux-gnu"

%struct.Bmc_AndPar_t_ = type { i32, i32, i32, i32, i32, i32, i32, i32, i32, i32, i32, i32, i32, i32, i32, i32, i32, i32, i32, ptr }
%struct.timespec = type { i64, i64 }

; Function Attrs: inlinehint nounwind uwtable
define internal i32 @Abc_MinInt(i32 noundef %0, i32 noundef %1) #2 {
  %3 = alloca i32, align 4
  %4 = alloca i32, align 4
  store i32 %0, ptr %3, align 4, !tbaa !8
  store i32 %1, ptr %4, align 4, !tbaa !8
  %5 = load i32, ptr %3, align 4, !tbaa !8
  %6 = load i32, ptr %4, align 4, !tbaa !8
  %7 = icmp slt i32 %5, %6
  br i1 %7, label %8, label %10

8:                                                ; preds = %2
  %9 = load i32, ptr %3, align 4, !tbaa !8
  br label %12

10:                                               ; preds = %2
  %11 = load i32, ptr %4, align 4, !tbaa !8
  br label %12

12:                                               ; preds = %10, %8
  %13 = phi i32 [ %9, %8 ], [ %11, %10 ]
  ret i32 %13
}

; Function Attrs: inlinehint nounwind uwtable
define internal i64 @Abc_Clock() #2 {
  %1 = alloca i64, align 8
  %2 = alloca %struct.timespec, align 8
  %3 = alloca i32, align 4
  %4 = alloca i64, align 8
  call void @llvm.lifetime.start.p0(i64 16, ptr %2) #12
  %5 = call i32 @clock_gettime(i32 noundef 1, ptr noundef %2) #12
  %6 = icmp slt i32 %5, 0
  br i1 %6, label %7, label %8

7:                                                ; preds = %0
  store i64 -1, ptr %1, align 8
  store i32 1, ptr %3, align 4
  br label %19

8:                                                ; preds = %0
  call void @llvm.lifetime.start.p0(i64 8, ptr %4) #12
  %9 = getelementptr inbounds nuw %struct.timespec, ptr %2, i32 0, i32 0
  %10 = load i64, ptr %9, align 8, !tbaa !165
  %11 = mul nsw i64 %10, 1000000
  store i64 %11, ptr %4, align 8, !tbaa !12
  %12 = getelementptr inbounds nuw %struct.timespec, ptr %2, i32 0, i32 1
  %13 = load i64, ptr %12, align 8, !tbaa !167
  %14 = mul nsw i64 %13, 1000000
  %15 = sdiv i64 %14, 1000000000
  %16 = load i64, ptr %4, align 8, !tbaa !12
  %17 = add nsw i64 %16, %15
  store i64 %17, ptr %4, align 8, !tbaa !12
  %18 = load i64, ptr %4, align 8, !tbaa !12
  store i64 %18, ptr %1, align 8
  store i32 1, ptr %3, align 4
  call void @llvm.lifetime.end.p0(i64 8, ptr %4) #12
  br label %19

19:                                               ; preds = %8, %7
  call void @llvm.lifetime.end.p0(i64 16, ptr %2) #12
  %20 = load i64, ptr %1, align 8
  ret i64 %20
}

; Function Attrs: nounwind uwtable
define i32 @Gia_ManBmcPerform(ptr noundef %0, ptr noundef %1) #0 {
  %3 = alloca i32, align 4
  %4 = alloca ptr, align 8
  %5 = alloca ptr, align 8
  %6 = alloca i64, align 8
  %7 = alloca i32, align 4
  store ptr %0, ptr %4, align 8, !tbaa !3
  store ptr %1, ptr %5, align 8, !tbaa !118
  call void @llvm.lifetime.start.p0(i64 8, ptr %6) #12
  %8 = load ptr, ptr %5, align 8, !tbaa !118
  %9 = getelementptr inbounds nuw %struct.Bmc_AndPar_t_, ptr %8, i32 0, i32 4
  %10 = load i32, ptr %9, align 8, !tbaa !159
  %11 = icmp ne i32 %10, 0
  br i1 %11, label %12, label %20

12:                                               ; preds = %2
  %13 = load ptr, ptr %5, align 8, !tbaa !118
  %14 = getelementptr inbounds nuw %struct.Bmc_AndPar_t_, ptr %13, i32 0, i32 4
  %15 = load i32, ptr %14, align 8, !tbaa !159
  %16 = sext i32 %15 to i64
  %17 = mul nsw i64 %16, 1000000
  %18 = call i64 @Abc_Clock()
  %19 = add nsw i64 %17, %18
  br label %21

20:                                               ; preds = %2
  br label %21

21:                                               ; preds = %20, %12
  %22 = phi i64 [ %19, %12 ], [ 0, %20 ]
  store i64 %22, ptr %6, align 8, !tbaa !12
  %23 = load ptr, ptr %5, align 8, !tbaa !118
  %24 = getelementptr inbounds nuw %struct.Bmc_AndPar_t_, ptr %23, i32 0, i32 2
  %25 = load i32, ptr %24, align 8, !tbaa !148
  %26 = icmp eq i32 %25, 0
  br i1 %26, label %27, label %31

27:                                               ; preds = %21
  %28 = load ptr, ptr %4, align 8, !tbaa !3
  %29 = load ptr, ptr %5, align 8, !tbaa !118
  %30 = call i32 @Gia_ManBmcPerformInt(ptr noundef %28, ptr noundef %29)
  store i32 %30, ptr %3, align 4
  store i32 1, ptr %7, align 4
  br label %77

31:                                               ; preds = %21
  br label %32

32:                                               ; preds = %72, %31
  br label %33

33:                                               ; preds = %32
  %34 = load i64, ptr %6, align 8, !tbaa !12
  %35 = icmp ne i64 %34, 0
  br i1 %35, label %36, label %41

36:                                               ; preds = %33
  %37 = load i64, ptr %6, align 8, !tbaa !12
  %38 = call i64 @Abc_Clock()
  %39 = icmp slt i64 %37, %38
  br i1 %39, label %40, label %41

40:                                               ; preds = %36
  store i32 -1, ptr %3, align 4
  store i32 1, ptr %7, align 4
  br label %77

41:                                               ; preds = %36, %33
  %42 = load ptr, ptr %4, align 8, !tbaa !3
  %43 = load ptr, ptr %5, align 8, !tbaa !118
  %44 = call i32 @Gia_ManBmcPerformInt(ptr noundef %42, ptr noundef %43)
  %45 = icmp eq i32 %44, 0
  br i1 %45, label %46, label %47

46:                                               ; preds = %41
  store i32 0, ptr %3, align 4
  store i32 1, ptr %7, align 4
  br label %77

47:                                               ; preds = %41
  %48 = load ptr, ptr %5, align 8, !tbaa !118
  %49 = getelementptr inbounds nuw %struct.Bmc_AndPar_t_, ptr %48, i32 0, i32 4
  %50 = load i32, ptr %49, align 8, !tbaa !159
  %51 = icmp ne i32 %50, 0
  br i1 %51, label %52, label %71

52:                                               ; preds = %47
  %53 = load ptr, ptr %5, align 8, !tbaa !118
  %54 = getelementptr inbounds nuw %struct.Bmc_AndPar_t_, ptr %53, i32 0, i32 4
  %55 = load i32, ptr %54, align 8, !tbaa !159
  %56 = sub nsw i32 %55, 1
  %57 = load i64, ptr %6, align 8, !tbaa !12
  %58 = call i64 @Abc_Clock()
  %59 = sub nsw i64 %57, %58
  %60 = sdiv i64 %59, 1000000
  %61 = trunc i64 %60 to i32
  %62 = call i32 @Abc_MinInt(i32 noundef %56, i32 noundef %61)
  %63 = load ptr, ptr %5, align 8, !tbaa !118
  %64 = getelementptr inbounds nuw %struct.Bmc_AndPar_t_, ptr %63, i32 0, i32 4
  store i32 %62, ptr %64, align 8, !tbaa !159
  %65 = load ptr, ptr %5, align 8, !tbaa !118
  %66 = getelementptr inbounds nuw %struct.Bmc_AndPar_t_, ptr %65, i32 0, i32 4
  %67 = load i32, ptr %66, align 8, !tbaa !159
  %68 = icmp sle i32 %67, 0
  br i1 %68, label %69, label %70

69:                                               ; preds = %52
  store i32 -1, ptr %3, align 4
  store i32 1, ptr %7, align 4
  br label %77

70:                                               ; preds = %52
  br label %72

71:                                               ; preds = %47
  store i32 -1, ptr %3, align 4
  store i32 1, ptr %7, align 4
  br label %77

72:                                               ; preds = %70
  %73 = load ptr, ptr %5, align 8, !tbaa !118
  %74 = getelementptr inbounds nuw %struct.Bmc_AndPar_t_, ptr %73, i32 0, i32 2
  %75 = load i32, ptr %74, align 8, !tbaa !148
  %76 = mul nsw i32 %75, 2
  store i32 %76, ptr %74, align 8, !tbaa !148
  br label %32

77:                                               ; preds = %71, %69, %46, %40, %27
  call void @llvm.lifetime.end.p0(i64 8, ptr %6) #12
  %78 = load i32, ptr %3, align 4
  ret i32 %78
}