; Function Attrs: nounwind uwtable
define range(i32 -1, 1) i32 @Gia_ManBmcPerform(ptr noundef %0, ptr noundef captures(none) %1) local_unnamed_addr #0 {
  %3 = alloca %struct.timespec, align 8
  %4 = alloca %struct.timespec, align 8
  %5 = alloca %struct.timespec, align 8
  %6 = getelementptr inbounds nuw i8, ptr %1, i64 16
  %7 = load i32, ptr %6, align 8, !tbaa !146
  %.not = icmp eq i32 %7, 0
  br i1 %.not, label %.thread, label %8

8:                                                ; preds = %2
  %9 = sext i32 %7 to i64
  %10 = mul nsw i64 %9, 1000000
  call void @llvm.lifetime.start.p0(i64 16, ptr nonnull %5) #19
  %11 = call i32 @clock_gettime(i32 noundef 1, ptr noundef nonnull %5) #19
  %12 = icmp slt i32 %11, 0
  br i1 %12, label %20, label %13

13:                                               ; preds = %8
  %14 = load i64, ptr %5, align 8, !tbaa !29
  %15 = mul nsw i64 %14, 1000000
  %16 = getelementptr inbounds nuw i8, ptr %5, i64 8
  %17 = load i64, ptr %16, align 8, !tbaa !31
  %18 = sdiv i64 %17, 1000
  %19 = add nsw i64 %18, %15
  br label %20

20:                                               ; preds = %13, %8
  %.0.i = phi i64 [ %19, %13 ], [ -1, %8 ]
  call void @llvm.lifetime.end.p0(i64 16, ptr nonnull %5) #19
  %21 = add nsw i64 %.0.i, %10
  %22 = getelementptr inbounds nuw i8, ptr %1, i64 8
  %23 = load i32, ptr %22, align 8, !tbaa !135
  %24 = icmp eq i32 %23, 0
  br i1 %24, label %52, label %.preheader

.thread:                                          ; preds = %2
  %25 = getelementptr inbounds nuw i8, ptr %1, i64 8
  %26 = load i32, ptr %25, align 8, !tbaa !135
  %27 = icmp eq i32 %26, 0
  br i1 %27, label %52, label %.preheader.thread

.preheader.thread:                                ; preds = %.thread
  %28 = getelementptr inbounds nuw i8, ptr %3, i64 8
  br label %.preheader.split.us

.preheader:                                       ; preds = %20
  %.not18 = icmp eq i64 %21, 0
  %29 = getelementptr inbounds nuw i8, ptr %4, i64 8
  %30 = getelementptr inbounds nuw i8, ptr %3, i64 8
  br i1 %.not18, label %.preheader.split.us, label %.preheader.split

.preheader.split.us:                              ; preds = %.preheader.thread, %.preheader
  %31 = phi ptr [ %28, %.preheader.thread ], [ %30, %.preheader ]
  %32 = phi ptr [ %25, %.preheader.thread ], [ %22, %.preheader ]
  %33 = call i32 @Gia_ManBmcPerformInt(ptr noundef %0, ptr noundef nonnull %1)
  %34 = icmp eq i32 %33, 0
  br i1 %34, label %.loopexit, label %.lr.ph

.lr.ph:                                           ; preds = %.preheader.split.us, %47
  %35 = load i32, ptr %6, align 8, !tbaa !146
  %.not19.us = icmp eq i32 %35, 0
  br i1 %.not19.us, label %.loopexit, label %36

36:                                               ; preds = %.lr.ph
  %37 = add nsw i32 %35, -1
  call void @llvm.lifetime.start.p0(i64 16, ptr nonnull %3) #19
  %38 = call i32 @clock_gettime(i32 noundef 1, ptr noundef nonnull %3) #19
  %39 = icmp slt i32 %38, 0
  br i1 %39, label %Abc_Clock.exit23.us, label %40

40:                                               ; preds = %36
  %41 = load i64, ptr %3, align 8, !tbaa !29
  %.neg24.us = mul i64 %41, -1000000
  %42 = load i64, ptr %31, align 8, !tbaa !31
  %.neg.us = sdiv i64 %42, -1000
  %.neg25.us = add i64 %.neg.us, %.neg24.us
  %43 = sdiv i64 %.neg25.us, 1000000
  %44 = trunc i64 %43 to i32
  br label %Abc_Clock.exit23.us

Abc_Clock.exit23.us:                              ; preds = %40, %36
  %.0.i22.neg.us = phi i32 [ %44, %40 ], [ 0, %36 ]
  call void @llvm.lifetime.end.p0(i64 16, ptr nonnull %3) #19
  %45 = call noundef i32 @llvm.smin.i32(i32 %37, i32 %.0.i22.neg.us)
  store i32 %45, ptr %6, align 8, !tbaa !146
  %46 = icmp slt i32 %45, 1
  br i1 %46, label %.loopexit, label %47

47:                                               ; preds = %Abc_Clock.exit23.us
  %48 = load i32, ptr %32, align 8, !tbaa !135
  %49 = shl nsw i32 %48, 1
  store i32 %49, ptr %32, align 8, !tbaa !135
  %50 = call i32 @Gia_ManBmcPerformInt(ptr noundef %0, ptr noundef nonnull %1)
  %51 = icmp eq i32 %50, 0
  br i1 %51, label %.loopexit, label %.lr.ph

52:                                               ; preds = %.thread, %20
  %53 = call i32 @Gia_ManBmcPerformInt(ptr noundef %0, ptr noundef nonnull %1)
  br label %.loopexit

.preheader.split:                                 ; preds = %.preheader, %80
  call void @llvm.lifetime.start.p0(i64 16, ptr nonnull %4) #19
  %54 = call i32 @clock_gettime(i32 noundef 1, ptr noundef nonnull %4) #19
  %55 = icmp slt i32 %54, 0
  br i1 %55, label %Abc_Clock.exit21, label %56

56:                                               ; preds = %.preheader.split
  %57 = load i64, ptr %4, align 8, !tbaa !29
  %58 = mul nsw i64 %57, 1000000
  %59 = load i64, ptr %29, align 8, !tbaa !31
  %60 = sdiv i64 %59, 1000
  %61 = add nsw i64 %60, %58
  br label %Abc_Clock.exit21

Abc_Clock.exit21:                                 ; preds = %.preheader.split, %56
  %.0.i20 = phi i64 [ %61, %56 ], [ -1, %.preheader.split ]
  call void @llvm.lifetime.end.p0(i64 16, ptr nonnull %4) #19
  %62 = icmp slt i64 %21, %.0.i20
  br i1 %62, label %.loopexit, label %63

63:                                               ; preds = %Abc_Clock.exit21
  %64 = call i32 @Gia_ManBmcPerformInt(ptr noundef %0, ptr noundef nonnull %1)
  %65 = icmp eq i32 %64, 0
  br i1 %65, label %.loopexit, label %66

66:                                               ; preds = %63
  %67 = load i32, ptr %6, align 8, !tbaa !146
  %.not19 = icmp eq i32 %67, 0
  br i1 %.not19, label %.loopexit, label %68

68:                                               ; preds = %66
  %69 = add nsw i32 %67, -1
  call void @llvm.lifetime.start.p0(i64 16, ptr nonnull %3) #19
  %70 = call i32 @clock_gettime(i32 noundef 1, ptr noundef nonnull %3) #19
  %71 = icmp slt i32 %70, 0
  br i1 %71, label %Abc_Clock.exit23, label %72

72:                                               ; preds = %68
  %73 = load i64, ptr %3, align 8, !tbaa !29
  %.neg24 = mul i64 %73, -1000000
  %74 = load i64, ptr %30, align 8, !tbaa !31
  %.neg = sdiv i64 %74, -1000
  %.neg25 = add i64 %.neg, %.neg24
  br label %Abc_Clock.exit23

Abc_Clock.exit23:                                 ; preds = %68, %72
  %.0.i22.neg = phi i64 [ %.neg25, %72 ], [ 1, %68 ]
  call void @llvm.lifetime.end.p0(i64 16, ptr nonnull %3) #19
  %75 = add i64 %.0.i22.neg, %21
  %76 = sdiv i64 %75, 1000000
  %77 = trunc i64 %76 to i32
  %78 = call noundef i32 @llvm.smin.i32(i32 %69, i32 %77)
  store i32 %78, ptr %6, align 8, !tbaa !146
  %79 = icmp slt i32 %78, 1
  br i1 %79, label %.loopexit, label %80

80:                                               ; preds = %Abc_Clock.exit23
  %81 = load i32, ptr %22, align 8, !tbaa !135
  %82 = shl nsw i32 %81, 1
  store i32 %82, ptr %22, align 8, !tbaa !135
  br label %.preheader.split

.loopexit:                                        ; preds = %Abc_Clock.exit21, %63, %Abc_Clock.exit23, %66, %47, %.lr.ph, %Abc_Clock.exit23.us, %.preheader.split.us, %52
  %.0 = phi i32 [ %53, %52 ], [ 0, %.preheader.split.us ], [ -1, %Abc_Clock.exit23.us ], [ -1, %.lr.ph ], [ 0, %47 ], [ -1, %66 ], [ -1, %Abc_Clock.exit23 ], [ 0, %63 ], [ -1, %Abc_Clock.exit21 ]
  ret i32 %.0
}